; Listing generated by Microsoft (R) Optimizing Compiler Version 14.00.50727.42 

	TITLE	c:\Documents and Settings\Michael\Desktop\bte_lighter\Demos\Demo6_new\SysCore\Kernel\main.cpp
	.686P
	.XMM
	include listing.inc
	.model	flat

INCLUDELIB LIBCMT
INCLUDELIB OLDNAMES

PUBLIC	??_C@_0DC@NHHANBFB@?6?6I?5am?5preparing?5to?5load?4?4?4?5Hold@ ; `string'
PUBLIC	??_C@_07CFAMGIEN@?6?$FL0x?$CFx?$FN?$AA@		; `string'
PUBLIC	??_C@_05HPJKAPFK@?6?$FL?$CFi?$FN?$AA@		; `string'
PUBLIC	??_C@_0CH@BOGMIAEI@?6i?5in?5hex?5?4?4?4?4?4?4?4?4?4?4?4?4?4?4?4?4?4?4?4?4?4?4@ ; `string'
PUBLIC	??_C@_0CH@MFILIHKL@?6i?5as?5integer?5?4?4?4?4?4?4?4?4?4?4?4?4?4?4?4?4?4?4@ ; `string'
PUBLIC	??_C@_0CO@MLNNAIEG@?$CL?9?9?9?9?9?9?9?9?9?9?9?9?9?9?9?9?9?9?9?9?9?9?9?9?9?9?9?9?9?9?9@ ; `string'
PUBLIC	??_C@_0CN@PMONMCJE@?$HM?5?5?5?5MOS?532?5Bit?5C?$CL?$CL?5Kernel?5Execu@ ; `string'
PUBLIC	??_C@_0CN@FMGOCDKO@?$CL?9?9?9?9?9?9?9?9?9?9?9?9?9?9?9?9?9?9?9?9?9?9?9?9?9?9?9?9?9?9?9@ ; `string'
PUBLIC	_main
EXTRN	?DebugPrintf@@YAHPBDZZ:PROC			; DebugPrintf
EXTRN	?DebugSetColor@@YAII@Z:PROC			; DebugSetColor
EXTRN	?DebugGotoXY@@YAXII@Z:PROC			; DebugGotoXY
EXTRN	?DebugClrScr@@YAXG@Z:PROC			; DebugClrScr
;	COMDAT ??_C@_0DC@NHHANBFB@?6?6I?5am?5preparing?5to?5load?4?4?4?5Hold@
; File c:\documents and settings\michael\desktop\bte_lighter\demos\demo6_new\syscore\kernel\main.cpp
CONST	SEGMENT
??_C@_0DC@NHHANBFB@?6?6I?5am?5preparing?5to?5load?4?4?4?5Hold@ DB 0aH, 0aH
	DB	'I am preparing to load... Hold on, please... :)', 00H ; `string'
CONST	ENDS
;	COMDAT ??_C@_07CFAMGIEN@?6?$FL0x?$CFx?$FN?$AA@
CONST	SEGMENT
??_C@_07CFAMGIEN@?6?$FL0x?$CFx?$FN?$AA@ DB 0aH, '[0x%x]', 00H ; `string'
CONST	ENDS
;	COMDAT ??_C@_05HPJKAPFK@?6?$FL?$CFi?$FN?$AA@
CONST	SEGMENT
??_C@_05HPJKAPFK@?6?$FL?$CFi?$FN?$AA@ DB 0aH, '[%i]', 00H ; `string'
CONST	ENDS
;	COMDAT ??_C@_0CH@BOGMIAEI@?6i?5in?5hex?5?4?4?4?4?4?4?4?4?4?4?4?4?4?4?4?4?4?4?4?4?4?4@
CONST	SEGMENT
??_C@_0CH@BOGMIAEI@?6i?5in?5hex?5?4?4?4?4?4?4?4?4?4?4?4?4?4?4?4?4?4?4?4?4?4?4@ DB 0aH
	DB	'i in hex ............................', 00H	; `string'
CONST	ENDS
;	COMDAT ??_C@_0CH@MFILIHKL@?6i?5as?5integer?5?4?4?4?4?4?4?4?4?4?4?4?4?4?4?4?4?4?4@
CONST	SEGMENT
??_C@_0CH@MFILIHKL@?6i?5as?5integer?5?4?4?4?4?4?4?4?4?4?4?4?4?4?4?4?4?4?4@ DB 0aH
	DB	'i as integer ........................', 00H	; `string'
CONST	ENDS
;	COMDAT ??_C@_0CO@MLNNAIEG@?$CL?9?9?9?9?9?9?9?9?9?9?9?9?9?9?9?9?9?9?9?9?9?9?9?9?9?9?9?9?9?9?9@
CONST	SEGMENT
??_C@_0CO@MLNNAIEG@?$CL?9?9?9?9?9?9?9?9?9?9?9?9?9?9?9?9?9?9?9?9?9?9?9?9?9?9?9?9?9?9?9@ DB '+'
	DB	'-----------------------------------------+', 0aH, 0aH, 00H ; `string'
CONST	ENDS
;	COMDAT ??_C@_0CN@PMONMCJE@?$HM?5?5?5?5MOS?532?5Bit?5C?$CL?$CL?5Kernel?5Execu@
CONST	SEGMENT
??_C@_0CN@PMONMCJE@?$HM?5?5?5?5MOS?532?5Bit?5C?$CL?$CL?5Kernel?5Execu@ DB '|'
	DB	'    MOS 32 Bit C++ Kernel Executing!     |', 0aH, 00H ; `string'
CONST	ENDS
;	COMDAT ??_C@_0CN@FMGOCDKO@?$CL?9?9?9?9?9?9?9?9?9?9?9?9?9?9?9?9?9?9?9?9?9?9?9?9?9?9?9?9?9?9?9@
CONST	SEGMENT
??_C@_0CN@FMGOCDKO@?$CL?9?9?9?9?9?9?9?9?9?9?9?9?9?9?9?9?9?9?9?9?9?9?9?9?9?9?9?9?9?9?9@ DB '+'
	DB	'-----------------------------------------+', 0aH, 00H ; `string'
; Function compile flags: /Ogtpy
CONST	ENDS
;	COMDAT _main
_TEXT	SEGMENT
_main	PROC						; COMDAT

; 11   : 
; 12   : 	int i=0x12;
; 13   : 
; 14   : 	DebugClrScr (0x18);

	push	24					; 00000018H
	call	?DebugClrScr@@YAXG@Z			; DebugClrScr

; 15   : 
; 16   : 	DebugGotoXY (4,4);

	push	4
	push	4
	call	?DebugGotoXY@@YAXII@Z			; DebugGotoXY

; 17   : 	DebugSetColor (0x17);

	push	23					; 00000017H
	call	?DebugSetColor@@YAII@Z			; DebugSetColor

; 18   : 	DebugPrintf ("+-----------------------------------------+\n");

	push	OFFSET ??_C@_0CN@FMGOCDKO@?$CL?9?9?9?9?9?9?9?9?9?9?9?9?9?9?9?9?9?9?9?9?9?9?9?9?9?9?9?9?9?9?9@
	call	?DebugPrintf@@YAHPBDZZ			; DebugPrintf

; 19   : 	DebugPrintf ("|    MOS 32 Bit C++ Kernel Executing!     |\n");

	push	OFFSET ??_C@_0CN@PMONMCJE@?$HM?5?5?5?5MOS?532?5Bit?5C?$CL?$CL?5Kernel?5Execu@
	call	?DebugPrintf@@YAHPBDZZ			; DebugPrintf

; 20   : 	DebugPrintf ("+-----------------------------------------+\n\n");

	push	OFFSET ??_C@_0CO@MLNNAIEG@?$CL?9?9?9?9?9?9?9?9?9?9?9?9?9?9?9?9?9?9?9?9?9?9?9?9?9?9?9?9?9?9?9@
	call	?DebugPrintf@@YAHPBDZZ			; DebugPrintf

; 21   : 	DebugSetColor (0x12);

	push	18					; 00000012H
	call	?DebugSetColor@@YAII@Z			; DebugSetColor

; 22   : 
; 23   : 	DebugSetColor (0x12);

	push	18					; 00000012H
	call	?DebugSetColor@@YAII@Z			; DebugSetColor

; 24   : 	DebugPrintf ("\ni as integer ........................");

	push	OFFSET ??_C@_0CH@MFILIHKL@?6i?5as?5integer?5?4?4?4?4?4?4?4?4?4?4?4?4?4?4?4?4?4?4@
	call	?DebugPrintf@@YAHPBDZZ			; DebugPrintf

; 25   : 	DebugPrintf ("\ni in hex ............................");

	push	OFFSET ??_C@_0CH@BOGMIAEI@?6i?5in?5hex?5?4?4?4?4?4?4?4?4?4?4?4?4?4?4?4?4?4?4?4?4?4?4@
	call	?DebugPrintf@@YAHPBDZZ			; DebugPrintf

; 26   : 
; 27   : 	DebugGotoXY (25,8);

	push	8
	push	25					; 00000019H
	call	?DebugGotoXY@@YAXII@Z			; DebugGotoXY

; 28   : 	DebugSetColor (0x1F);

	push	31					; 0000001fH
	call	?DebugSetColor@@YAII@Z			; DebugSetColor

; 29   : 	DebugPrintf ("\n[%i]",i);

	push	18					; 00000012H
	push	OFFSET ??_C@_05HPJKAPFK@?6?$FL?$CFi?$FN?$AA@
	call	?DebugPrintf@@YAHPBDZZ			; DebugPrintf
	add	esp, 64					; 00000040H

; 30   : 	DebugPrintf ("\n[0x%x]",i);

	push	18					; 00000012H
	push	OFFSET ??_C@_07CFAMGIEN@?6?$FL0x?$CFx?$FN?$AA@
	call	?DebugPrintf@@YAHPBDZZ			; DebugPrintf

; 31   : 
; 32   : 	DebugGotoXY (4,16);

	push	16					; 00000010H
	push	4
	call	?DebugGotoXY@@YAXII@Z			; DebugGotoXY

; 33   : 	DebugSetColor (0x1F);

	push	31					; 0000001fH
	call	?DebugSetColor@@YAII@Z			; DebugSetColor

; 34   : 	DebugPrintf ("\n\nI am preparing to load... Hold on, please... :)");

	push	OFFSET ??_C@_0DC@NHHANBFB@?6?6I?5am?5preparing?5to?5load?4?4?4?5Hold@
	call	?DebugPrintf@@YAHPBDZZ			; DebugPrintf
	add	esp, 24					; 00000018H

; 35   : 
; 36   : }

	xor	eax, eax
	ret	0
_main	ENDP
_TEXT	ENDS
END
